; Function Attrs: mustprogress nofree norecurse nosync nounwind willreturn memory(argmem: read) uwtable
define hidden noundef zeroext i1 @_ZNK5osgeo4proj12ExtentAndRes8containsERKS1_(ptr noundef nonnull readonly align 8 captures(none) dereferenceable(72) %0, ptr noundef nonnull readonly align 8 captures(none) dereferenceable(72) %1) local_unnamed_addr #1 align 2 {
  %3 = getelementptr inbounds nuw i8, ptr %1, i64 8
  %4 = load double, ptr %3, align 8, !tbaa !16
  %5 = getelementptr inbounds nuw i8, ptr %0, i64 8
  %6 = load double, ptr %5, align 8, !tbaa !16
  %7 = fcmp ult double %4, %6
  br i1 %7, label %26, label %8

8:                                                ; preds = %2
  %9 = getelementptr inbounds nuw i8, ptr %1, i64 24
  %10 = load double, ptr %9, align 8, !tbaa !15
  %11 = getelementptr inbounds nuw i8, ptr %0, i64 24
  %12 = load double, ptr %11, align 8, !tbaa !15
  %13 = fcmp ugt double %10, %12
  br i1 %13, label %26, label %14

14:                                               ; preds = %8
  %15 = getelementptr inbounds nuw i8, ptr %1, i64 16
  %16 = load double, ptr %15, align 8, !tbaa !17
  %17 = getelementptr inbounds nuw i8, ptr %0, i64 16
  %18 = load double, ptr %17, align 8, !tbaa !17
  %19 = fcmp ult double %16, %18
  br i1 %19, label %26, label %20

20:                                               ; preds = %14
  %21 = getelementptr inbounds nuw i8, ptr %1, i64 32
  %22 = load double, ptr %21, align 8, !tbaa !18
  %23 = getelementptr inbounds nuw i8, ptr %0, i64 32
  %24 = load double, ptr %23, align 8, !tbaa !18
  %25 = fcmp ole double %22, %24
  br label %26

26:                                               ; preds = %20, %14, %8, %2
  %27 = phi i1 [ false, %14 ], [ false, %8 ], [ false, %2 ], [ %25, %20 ]
  ret i1 %27
}